target datalayout = "e-m:e-p270:32:32-p271:32:32-p272:64:64-i64:64-i128:128-f80:128-n8:16:32:64-S128"
target triple = "x86_64-pc-linux-gnu"

%struct.If_LibLut_t_ = type { ptr, i32, i32, [33 x float], [33 x [33 x float]] }

; Function Attrs: nounwind uwtable
define i32 @If_LibLutDelaysAreDifferent(ptr noundef %0) #0 {
  %2 = alloca i32, align 4
  %3 = alloca ptr, align 8
  %4 = alloca i32, align 4
  %5 = alloca i32, align 4
  %6 = alloca float, align 4
  %7 = alloca i32, align 4
  store ptr %0, ptr %3, align 8, !tbaa !15
  call void @llvm.lifetime.start.p0(i64 4, ptr %4) #12
  call void @llvm.lifetime.start.p0(i64 4, ptr %5) #12
  call void @llvm.lifetime.start.p0(i64 4, ptr %6) #12
  %8 = load ptr, ptr %3, align 8, !tbaa !15
  %9 = getelementptr inbounds nuw %struct.If_LibLut_t_, ptr %8, i32 0, i32 4
  %10 = getelementptr inbounds [33 x [33 x float]], ptr %9, i64 0, i64 1
  %11 = getelementptr inbounds [33 x float], ptr %10, i64 0, i64 0
  %12 = load float, ptr %11, align 4, !tbaa !21
  store float %12, ptr %6, align 4, !tbaa !21
  %13 = load ptr, ptr %3, align 8, !tbaa !15
  %14 = getelementptr inbounds nuw %struct.If_LibLut_t_, ptr %13, i32 0, i32 2
  %15 = load i32, ptr %14, align 4, !tbaa !24
  %16 = icmp ne i32 %15, 0
  br i1 %16, label %17, label %51

17:                                               ; preds = %1
  store i32 2, ptr %4, align 4, !tbaa !17
  br label %18

18:                                               ; preds = %47, %17
  %19 = load i32, ptr %4, align 4, !tbaa !17
  %20 = load ptr, ptr %3, align 8, !tbaa !15
  %21 = getelementptr inbounds nuw %struct.If_LibLut_t_, ptr %20, i32 0, i32 1
  %22 = load i32, ptr %21, align 8, !tbaa !26
  %23 = icmp sle i32 %19, %22
  br i1 %23, label %24, label %50

24:                                               ; preds = %18
  store i32 0, ptr %5, align 4, !tbaa !17
  br label %25

25:                                               ; preds = %43, %24
  %26 = load i32, ptr %5, align 4, !tbaa !17
  %27 = load i32, ptr %4, align 4, !tbaa !17
  %28 = icmp slt i32 %26, %27
  br i1 %28, label %29, label %46

29:                                               ; preds = %25
  %30 = load ptr, ptr %3, align 8, !tbaa !15
  %31 = getelementptr inbounds nuw %struct.If_LibLut_t_, ptr %30, i32 0, i32 4
  %32 = load i32, ptr %4, align 4, !tbaa !17
  %33 = sext i32 %32 to i64
  %34 = getelementptr inbounds [33 x [33 x float]], ptr %31, i64 0, i64 %33
  %35 = load i32, ptr %5, align 4, !tbaa !17
  %36 = sext i32 %35 to i64
  %37 = getelementptr inbounds [33 x float], ptr %34, i64 0, i64 %36
  %38 = load float, ptr %37, align 4, !tbaa !21
  %39 = load float, ptr %6, align 4, !tbaa !21
  %40 = fcmp une float %38, %39
  br i1 %40, label %41, label %42

41:                                               ; preds = %29
  store i32 1, ptr %2, align 4
  store i32 1, ptr %7, align 4
  br label %75

42:                                               ; preds = %29
  br label %43

43:                                               ; preds = %42
  %44 = load i32, ptr %5, align 4, !tbaa !17
  %45 = add nsw i32 %44, 1
  store i32 %45, ptr %5, align 4, !tbaa !17
  br label %25, !llvm.loop !49

46:                                               ; preds = %25
  br label %47

47:                                               ; preds = %46
  %48 = load i32, ptr %4, align 4, !tbaa !17
  %49 = add nsw i32 %48, 1
  store i32 %49, ptr %4, align 4, !tbaa !17
  br label %18, !llvm.loop !50

50:                                               ; preds = %18
  br label %74

51:                                               ; preds = %1
  store i32 2, ptr %4, align 4, !tbaa !17
  br label %52

52:                                               ; preds = %70, %51
  %53 = load i32, ptr %4, align 4, !tbaa !17
  %54 = load ptr, ptr %3, align 8, !tbaa !15
  %55 = getelementptr inbounds nuw %struct.If_LibLut_t_, ptr %54, i32 0, i32 1
  %56 = load i32, ptr %55, align 8, !tbaa !26
  %57 = icmp sle i32 %53, %56
  br i1 %57, label %58, label %73

58:                                               ; preds = %52
  %59 = load ptr, ptr %3, align 8, !tbaa !15
  %60 = getelementptr inbounds nuw %struct.If_LibLut_t_, ptr %59, i32 0, i32 4
  %61 = load i32, ptr %4, align 4, !tbaa !17
  %62 = sext i32 %61 to i64
  %63 = getelementptr inbounds [33 x [33 x float]], ptr %60, i64 0, i64 %62
  %64 = getelementptr inbounds [33 x float], ptr %63, i64 0, i64 0
  %65 = load float, ptr %64, align 4, !tbaa !21
  %66 = load float, ptr %6, align 4, !tbaa !21
  %67 = fcmp une float %65, %66
  br i1 %67, label %68, label %69

68:                                               ; preds = %58
  store i32 1, ptr %2, align 4
  store i32 1, ptr %7, align 4
  br label %75

69:                                               ; preds = %58
  br label %70

70:                                               ; preds = %69
  %71 = load i32, ptr %4, align 4, !tbaa !17
  %72 = add nsw i32 %71, 1
  store i32 %72, ptr %4, align 4, !tbaa !17
  br label %52, !llvm.loop !51

73:                                               ; preds = %52
  br label %74

74:                                               ; preds = %73, %50
  store i32 0, ptr %2, align 4
  store i32 1, ptr %7, align 4
  br label %75

75:                                               ; preds = %74, %68, %41
  call void @llvm.lifetime.end.p0(i64 4, ptr %6) #12
  call void @llvm.lifetime.end.p0(i64 4, ptr %5) #12
  call void @llvm.lifetime.end.p0(i64 4, ptr %4) #12
  %76 = load i32, ptr %2, align 4
  ret i32 %76
}