; Function Attrs: nofree norecurse nosync nounwind memory(argmem: read) uwtable
define range(i32 0, 2) i32 @If_LibLutDelaysAreDifferent(ptr noundef readonly captures(none) %0) local_unnamed_addr #11 {
  %2 = getelementptr inbounds nuw i8, ptr %0, i64 148
  %3 = getelementptr inbounds nuw i8, ptr %0, i64 280
  %4 = load float, ptr %3, align 4, !tbaa !18
  %5 = getelementptr inbounds nuw i8, ptr %0, i64 12
  %6 = load i32, ptr %5, align 4, !tbaa !21
  %.not = icmp eq i32 %6, 0
  %7 = getelementptr inbounds nuw i8, ptr %0, i64 8
  %8 = load i32, ptr %7, align 8, !tbaa !15
  %.not2029 = icmp slt i32 %8, 2
  br i1 %.not, label %.preheader, label %.preheader24

.preheader24:                                     ; preds = %1
  br i1 %.not2029, label %.loopexit, label %.preheader22.preheader

.preheader22.preheader:                           ; preds = %.preheader24
  %9 = add nuw i32 %8, 1
  %wide.trip.count39 = zext i32 %9 to i64
  br label %.preheader22

.preheader:                                       ; preds = %1
  br i1 %.not2029, label %.loopexit, label %.lr.ph.preheader

.lr.ph.preheader:                                 ; preds = %.preheader
  %10 = add nuw i32 %8, 1
  %wide.trip.count = zext i32 %10 to i64
  br label %.lr.ph

.preheader22:                                     ; preds = %.preheader22.preheader, %16
  %indvars.iv36 = phi i64 [ 2, %.preheader22.preheader ], [ %indvars.iv.next37, %16 ]
  br label %12

11:                                               ; preds = %12
  %indvars.iv.next = add nuw nsw i64 %indvars.iv, 1
  %exitcond.not = icmp eq i64 %indvars.iv.next, %indvars.iv36
  br i1 %exitcond.not, label %16, label %12, !llvm.loop !44

12:                                               ; preds = %.preheader22, %11
  %indvars.iv = phi i64 [ 0, %.preheader22 ], [ %indvars.iv.next, %11 ]
  %13 = getelementptr inbounds nuw [33 x [33 x float]], ptr %2, i64 0, i64 %indvars.iv36, i64 %indvars.iv
  %14 = load float, ptr %13, align 4, !tbaa !18
  %15 = fcmp une float %14, %4
  br i1 %15, label %.loopexit, label %11

16:                                               ; preds = %11
  %indvars.iv.next37 = add nuw nsw i64 %indvars.iv36, 1
  %exitcond40.not = icmp eq i64 %indvars.iv.next37, %wide.trip.count39
  br i1 %exitcond40.not, label %.loopexit, label %.preheader22, !llvm.loop !45

17:                                               ; preds = %.lr.ph
  %indvars.iv.next42 = add nuw nsw i64 %indvars.iv41, 1
  %exitcond44.not = icmp eq i64 %indvars.iv.next42, %wide.trip.count
  br i1 %exitcond44.not, label %.loopexit, label %.lr.ph, !llvm.loop !46

.lr.ph:                                           ; preds = %.lr.ph.preheader, %17
  %indvars.iv41 = phi i64 [ 2, %.lr.ph.preheader ], [ %indvars.iv.next42, %17 ]
  %18 = getelementptr inbounds nuw [33 x [33 x float]], ptr %2, i64 0, i64 %indvars.iv41
  %19 = load float, ptr %18, align 4, !tbaa !18
  %20 = fcmp une float %19, %4
  br i1 %20, label %.loopexit, label %17

.loopexit:                                        ; preds = %16, %12, %.lr.ph, %17, %.preheader24, %.preheader
  %.0 = phi i32 [ 0, %.preheader ], [ 0, %.preheader24 ], [ 1, %.lr.ph ], [ 0, %17 ], [ 1, %12 ], [ 0, %16 ]
  ret i32 %.0
}